target datalayout = "e-m:e-p270:32:32-p271:32:32-p272:64:64-i64:64-i128:128-f80:128-n8:16:32:64-S128"
target triple = "x86_64-pc-linux-gnu"

%struct.__va_list_tag = type { i32, i32, ptr, ptr }

@.str.15 = private unnamed_addr constant [10 x i8] c"wrapper.c\00", align 1
@.str.22 = private unnamed_addr constant [29 x i8] c"unable to format message: %s\00", align 1
@.str.23 = private unnamed_addr constant [42 x i8] c"attempt to snprintf into too-small buffer\00", align 1

; Function Attrs: nounwind uwtable
define dso_local i32 @xsnprintf(ptr noundef %0, i64 noundef %1, ptr noundef %2, ...) #0 {
  %4 = alloca ptr, align 8
  %5 = alloca i64, align 8
  %6 = alloca ptr, align 8
  %7 = alloca [1 x %struct.__va_list_tag], align 16
  %8 = alloca i32, align 4
  store ptr %0, ptr %4, align 8, !tbaa !4
  store i64 %1, ptr %5, align 8, !tbaa !9
  store ptr %2, ptr %6, align 8, !tbaa !4
  call void @llvm.lifetime.start.p0(i64 24, ptr %7) #13
  call void @llvm.lifetime.start.p0(i64 4, ptr %8) #13
  %9 = getelementptr inbounds [1 x %struct.__va_list_tag], ptr %7, i64 0, i64 0
  call void @llvm.va_start.p0(ptr %9)
  %10 = load ptr, ptr %4, align 8, !tbaa !4
  %11 = load i64, ptr %5, align 8, !tbaa !9
  %12 = load ptr, ptr %6, align 8, !tbaa !4
  %13 = getelementptr inbounds [1 x %struct.__va_list_tag], ptr %7, i64 0, i64 0
  %14 = call i32 @vsnprintf(ptr noundef %10, i64 noundef %11, ptr noundef %12, ptr noundef %13) #13
  store i32 %14, ptr %8, align 4, !tbaa !11
  %15 = getelementptr inbounds [1 x %struct.__va_list_tag], ptr %7, i64 0, i64 0
  call void @llvm.va_end.p0(ptr %15)
  %16 = load i32, ptr %8, align 4, !tbaa !11
  %17 = icmp slt i32 %16, 0
  br i1 %17, label %18, label %21

18:                                               ; preds = %3
  %19 = call ptr @_(ptr noundef @.str.22)
  %20 = load ptr, ptr %6, align 8, !tbaa !4
  call void (ptr, ...) @die(ptr noundef %19, ptr noundef %20) #14
  unreachable

21:                                               ; preds = %3
  %22 = load i32, ptr %8, align 4, !tbaa !11
  %23 = sext i32 %22 to i64
  %24 = load i64, ptr %5, align 8, !tbaa !9
  %25 = icmp uge i64 %23, %24
  br i1 %25, label %26, label %27

26:                                               ; preds = %21
  call void (ptr, i32, ptr, ...) @BUG_fl(ptr noundef @.str.15, i32 noundef 678, ptr noundef @.str.23) #14
  unreachable

27:                                               ; preds = %21
  %28 = load i32, ptr %8, align 4, !tbaa !11
  call void @llvm.lifetime.end.p0(i64 4, ptr %8) #13
  call void @llvm.lifetime.end.p0(i64 24, ptr %7) #13
  ret i32 %28
}