; Function Attrs: nounwind uwtable
define dso_local range(i32 0, -2147483648) i32 @xsnprintf(ptr noundef captures(none) %0, i64 noundef %1, ptr noundef %2, ...) local_unnamed_addr #0 {
  %4 = alloca [1 x %struct.__va_list_tag], align 16
  call void @llvm.lifetime.start.p0(i64 24, ptr nonnull %4) #20
  call void @llvm.va_start.p0(ptr nonnull %4)
  %5 = call i32 @vsnprintf(ptr noundef %0, i64 noundef %1, ptr noundef %2, ptr noundef nonnull %4) #20
  call void @llvm.va_end.p0(ptr nonnull %4)
  %6 = icmp slt i32 %5, 0
  br i1 %6, label %7, label %9

7:                                                ; preds = %3
  %8 = call fastcc ptr @_(ptr noundef nonnull @.str.22)
  call void (ptr, ...) @die(ptr noundef %8, ptr noundef %2) #21
  unreachable

9:                                                ; preds = %3
  %10 = zext nneg i32 %5 to i64
  %.not = icmp ugt i64 %1, %10
  br i1 %.not, label %12, label %11

11:                                               ; preds = %9
  call void (ptr, i32, ptr, ...) @BUG_fl(ptr noundef nonnull @.str.15, i32 noundef 678, ptr noundef nonnull @.str.23) #21
  unreachable

12:                                               ; preds = %9
  call void @llvm.lifetime.end.p0(i64 24, ptr nonnull %4) #20
  ret i32 %5
}